; Function Attrs: nounwind uwtable
define internal range(i32 0, 2) i32 @sha224_internal_final(ptr noundef %0, ptr noundef %1, ptr noundef writeonly captures(none) %2, i64 noundef %3) #0 {
  %5 = tail call i32 @ossl_prov_is_running() #5
  %6 = icmp ne i32 %5, 0
  %7 = icmp ugt i64 %3, 27
  %or.cond = and i1 %7, %6
  br i1 %or.cond, label %8, label %11

8:                                                ; preds = %4
  %9 = tail call i32 @SHA224_Final(ptr noundef %1, ptr noundef %0) #5
  %.not = icmp eq i32 %9, 0
  br i1 %.not, label %11, label %10

10:                                               ; preds = %8
  store i64 28, ptr %2, align 8, !tbaa !3
  br label %11

11:                                               ; preds = %4, %8, %10
  %.0 = phi i32 [ 1, %10 ], [ 0, %8 ], [ 0, %4 ]
  ret i32 %.0
}